; ModuleID = 'source-C-CXX/59/1330.c'
source_filename = "source-C-CXX/59/1330.c"
target datalayout = "e-m:e-p270:32:32-p271:32:32-p272:64:64-i64:64-f80:128-n8:16:32:64-S128"
target triple = "x86_64-pc-linux-gnu"

@.str = private unnamed_addr constant [3 x i8] c"%d\00", align 1
@.str.1 = private unnamed_addr constant [6 x i8] c"empty\00", align 1
@.str.2 = private unnamed_addr constant [7 x i8] c"%d %d\0A\00", align 1

; Function Attrs: nofree nounwind sspstrong uwtable
define dso_local i32 @main() local_unnamed_addr #0 {
  %1 = alloca i32, align 4
  %2 = bitcast i32* %1 to i8*
  call void @llvm.lifetime.start.p0i8(i64 4, i8* nonnull %2) #3
  %3 = call i32 (i8*, ...) @__isoc99_scanf(i8* getelementptr inbounds ([3 x i8], [3 x i8]* @.str, i64 0, i64 0), i32* nonnull %1)
  %4 = load i32, i32* %1, align 4, !tbaa !5
  %5 = icmp slt i32 %4, 5
  br i1 %5, label %6, label %10

6:                                                ; preds = %0
  %7 = call i32 (i8*, ...) @printf(i8* nonnull dereferenceable(1) getelementptr inbounds ([6 x i8], [6 x i8]* @.str.1, i64 0, i64 0))
  %8 = load i32, i32* %1, align 4, !tbaa !5
  %9 = icmp sgt i32 %8, 4
  br i1 %9, label %10, label %47

10:                                               ; preds = %0, %6
  %11 = phi i32 [ %4, %0 ], [ %8, %6 ]
  br label %12

12:                                               ; preds = %10, %42
  %13 = phi i32 [ %43, %42 ], [ %11, %10 ]
  %14 = phi i32 [ %46, %42 ], [ 3, %10 ]
  %15 = phi i32 [ %18, %42 ], [ 1, %10 ]
  %16 = add nsw i32 %15, -1
  %17 = add nuw nsw i32 %15, 2
  %18 = add nuw nsw i32 %15, 1
  %19 = icmp ugt i32 %15, 2
  br i1 %19, label %20, label %42

20:                                               ; preds = %12, %37
  %21 = phi i32 [ %38, %37 ], [ 2, %12 ]
  %22 = urem i32 %15, %21
  %23 = icmp eq i32 %22, 0
  br i1 %23, label %40, label %24

24:                                               ; preds = %20
  %25 = icmp eq i32 %21, %16
  br i1 %25, label %26, label %37

26:                                               ; preds = %24, %34
  %27 = phi i32 [ %35, %34 ], [ 2, %24 ]
  %28 = urem i32 %17, %27
  %29 = icmp eq i32 %28, 0
  br i1 %29, label %37, label %30

30:                                               ; preds = %26
  %31 = icmp eq i32 %27, %18
  br i1 %31, label %32, label %34

32:                                               ; preds = %30
  %33 = call i32 (i8*, ...) @printf(i8* nonnull dereferenceable(1) getelementptr inbounds ([7 x i8], [7 x i8]* @.str.2, i64 0, i64 0), i32 %15, i32 %17)
  br label %34

34:                                               ; preds = %30, %32
  %35 = add nuw i32 %27, 1
  %36 = icmp eq i32 %35, %14
  br i1 %36, label %37, label %26, !llvm.loop !9

37:                                               ; preds = %26, %34, %24
  %38 = add nuw nsw i32 %21, 1
  %39 = icmp eq i32 %38, %15
  br i1 %39, label %40, label %20, !llvm.loop !11

40:                                               ; preds = %37, %20
  %41 = load i32, i32* %1, align 4, !tbaa !5
  br label %42

42:                                               ; preds = %40, %12
  %43 = phi i32 [ %41, %40 ], [ %13, %12 ]
  %44 = add nsw i32 %43, -2
  %45 = icmp slt i32 %15, %44
  %46 = add nuw i32 %14, 1
  br i1 %45, label %12, label %47, !llvm.loop !12

47:                                               ; preds = %42, %6
  call void @llvm.lifetime.end.p0i8(i64 4, i8* nonnull %2) #3
  ret i32 0
}

; Function Attrs: argmemonly mustprogress nofree nosync nounwind willreturn
declare void @llvm.lifetime.start.p0i8(i64 immarg, i8* nocapture) #1

; Function Attrs: nofree nounwind
declare noundef i32 @__isoc99_scanf(i8* nocapture noundef readonly, ...) local_unnamed_addr #2

; Function Attrs: nofree nounwind
declare noundef i32 @printf(i8* nocapture noundef readonly, ...) local_unnamed_addr #2

; Function Attrs: argmemonly mustprogress nofree nosync nounwind willreturn
declare void @llvm.lifetime.end.p0i8(i64 immarg, i8* nocapture) #1


!llvm.module.flags = !{!0, !1, !2, !3}
!llvm.ident = !{!4}

!0 = !{i32 1, !"wchar_size", i32 4}
!1 = !{i32 7, !"PIC Level", i32 2}
!2 = !{i32 7, !"PIE Level", i32 2}
!3 = !{i32 7, !"uwtable", i32 1}
!4 = !{!"clang version 13.0.0"}
!5 = !{!6, !6, i64 0}
!6 = !{!"int", !7, i64 0}
!7 = !{!"omnipotent char", !8, i64 0}
!8 = !{!"Simple C/C++ TBAA"}
!9 = distinct !{!9, !10}
!10 = !{!"llvm.loop.mustprogress"}
!11 = distinct !{!11, !10}
!12 = distinct !{!12, !10}
